target datalayout = "e-m:e-p270:32:32-p271:32:32-p272:64:64-i64:64-i128:128-f80:128-n8:16:32:64-S128"
target triple = "x86_64-pc-linux-gnu"

%struct.AVFilterContext = type { ptr, ptr, ptr, ptr, ptr, i32, ptr, ptr, i32, ptr, ptr, i32, i32, ptr, ptr, ptr, ptr, i32, ptr, i32, i32 }
%struct.AFFTFiltContext = type { ptr, ptr, ptr, i32, ptr, ptr, ptr, ptr, ptr, ptr, ptr, i32, i32, i32, ptr, ptr, i32, float, ptr, ptr, i32, ptr }

; Function Attrs: cold nounwind optsize uwtable
define internal void @uninit(ptr noundef %0) #0 {
  %2 = alloca ptr, align 8
  %3 = alloca ptr, align 8
  %4 = alloca i32, align 4
  store ptr %0, ptr %2, align 8, !tbaa !4
  call void @llvm.lifetime.start.p0(i64 8, ptr %3) #11
  %5 = load ptr, ptr %2, align 8, !tbaa !4
  %6 = getelementptr inbounds nuw %struct.AVFilterContext, ptr %5, i32 0, i32 9
  %7 = load ptr, ptr %6, align 8, !tbaa !9
  store ptr %7, ptr %3, align 8, !tbaa !22
  call void @llvm.lifetime.start.p0(i64 4, ptr %4) #11
  store i32 0, ptr %4, align 4, !tbaa !24
  br label %8

8:                                                ; preds = %75, %1
  %9 = load i32, ptr %4, align 4, !tbaa !24
  %10 = load ptr, ptr %3, align 8, !tbaa !22
  %11 = getelementptr inbounds nuw %struct.AFFTFiltContext, ptr %10, i32 0, i32 12
  %12 = load i32, ptr %11, align 4, !tbaa !25
  %13 = icmp slt i32 %9, %12
  br i1 %13, label %14, label %78

14:                                               ; preds = %8
  %15 = load ptr, ptr %3, align 8, !tbaa !22
  %16 = getelementptr inbounds nuw %struct.AFFTFiltContext, ptr %15, i32 0, i32 5
  %17 = load ptr, ptr %16, align 8, !tbaa !33
  %18 = icmp ne ptr %17, null
  br i1 %18, label %19, label %26

19:                                               ; preds = %14
  %20 = load ptr, ptr %3, align 8, !tbaa !22
  %21 = getelementptr inbounds nuw %struct.AFFTFiltContext, ptr %20, i32 0, i32 5
  %22 = load ptr, ptr %21, align 8, !tbaa !33
  %23 = load i32, ptr %4, align 4, !tbaa !24
  %24 = sext i32 %23 to i64
  %25 = getelementptr inbounds ptr, ptr %22, i64 %24
  call void @av_tx_uninit(ptr noundef %25)
  br label %26

26:                                               ; preds = %19, %14
  %27 = load ptr, ptr %3, align 8, !tbaa !22
  %28 = getelementptr inbounds nuw %struct.AFFTFiltContext, ptr %27, i32 0, i32 4
  %29 = load ptr, ptr %28, align 8, !tbaa !34
  %30 = icmp ne ptr %29, null
  br i1 %30, label %31, label %38

31:                                               ; preds = %26
  %32 = load ptr, ptr %3, align 8, !tbaa !22
  %33 = getelementptr inbounds nuw %struct.AFFTFiltContext, ptr %32, i32 0, i32 4
  %34 = load ptr, ptr %33, align 8, !tbaa !34
  %35 = load i32, ptr %4, align 4, !tbaa !24
  %36 = sext i32 %35 to i64
  %37 = getelementptr inbounds ptr, ptr %34, i64 %36
  call void @av_tx_uninit(ptr noundef %37)
  br label %38

38:                                               ; preds = %31, %26
  %39 = load ptr, ptr %3, align 8, !tbaa !22
  %40 = getelementptr inbounds nuw %struct.AFFTFiltContext, ptr %39, i32 0, i32 8
  %41 = load ptr, ptr %40, align 8, !tbaa !35
  %42 = icmp ne ptr %41, null
  br i1 %42, label %43, label %50

43:                                               ; preds = %38
  %44 = load ptr, ptr %3, align 8, !tbaa !22
  %45 = getelementptr inbounds nuw %struct.AFFTFiltContext, ptr %44, i32 0, i32 8
  %46 = load ptr, ptr %45, align 8, !tbaa !35
  %47 = load i32, ptr %4, align 4, !tbaa !24
  %48 = sext i32 %47 to i64
  %49 = getelementptr inbounds ptr, ptr %46, i64 %48
  call void @av_freep(ptr noundef %49)
  br label %50

50:                                               ; preds = %43, %38
  %51 = load ptr, ptr %3, align 8, !tbaa !22
  %52 = getelementptr inbounds nuw %struct.AFFTFiltContext, ptr %51, i32 0, i32 9
  %53 = load ptr, ptr %52, align 8, !tbaa !36
  %54 = icmp ne ptr %53, null
  br i1 %54, label %55, label %62

55:                                               ; preds = %50
  %56 = load ptr, ptr %3, align 8, !tbaa !22
  %57 = getelementptr inbounds nuw %struct.AFFTFiltContext, ptr %56, i32 0, i32 9
  %58 = load ptr, ptr %57, align 8, !tbaa !36
  %59 = load i32, ptr %4, align 4, !tbaa !24
  %60 = sext i32 %59 to i64
  %61 = getelementptr inbounds ptr, ptr %58, i64 %60
  call void @av_freep(ptr noundef %61)
  br label %62

62:                                               ; preds = %55, %50
  %63 = load ptr, ptr %3, align 8, !tbaa !22
  %64 = getelementptr inbounds nuw %struct.AFFTFiltContext, ptr %63, i32 0, i32 10
  %65 = load ptr, ptr %64, align 8, !tbaa !37
  %66 = icmp ne ptr %65, null
  br i1 %66, label %67, label %74

67:                                               ; preds = %62
  %68 = load ptr, ptr %3, align 8, !tbaa !22
  %69 = getelementptr inbounds nuw %struct.AFFTFiltContext, ptr %68, i32 0, i32 10
  %70 = load ptr, ptr %69, align 8, !tbaa !37
  %71 = load i32, ptr %4, align 4, !tbaa !24
  %72 = sext i32 %71 to i64
  %73 = getelementptr inbounds ptr, ptr %70, i64 %72
  call void @av_freep(ptr noundef %73)
  br label %74

74:                                               ; preds = %67, %62
  br label %75

75:                                               ; preds = %74
  %76 = load i32, ptr %4, align 4, !tbaa !24
  %77 = add nsw i32 %76, 1
  store i32 %77, ptr %4, align 4, !tbaa !24
  br label %8, !llvm.loop !38

78:                                               ; preds = %8
  %79 = load ptr, ptr %3, align 8, !tbaa !22
  %80 = getelementptr inbounds nuw %struct.AFFTFiltContext, ptr %79, i32 0, i32 4
  call void @av_freep(ptr noundef %80)
  %81 = load ptr, ptr %3, align 8, !tbaa !22
  %82 = getelementptr inbounds nuw %struct.AFFTFiltContext, ptr %81, i32 0, i32 5
  call void @av_freep(ptr noundef %82)
  %83 = load ptr, ptr %3, align 8, !tbaa !22
  %84 = getelementptr inbounds nuw %struct.AFFTFiltContext, ptr %83, i32 0, i32 8
  call void @av_freep(ptr noundef %84)
  %85 = load ptr, ptr %3, align 8, !tbaa !22
  %86 = getelementptr inbounds nuw %struct.AFFTFiltContext, ptr %85, i32 0, i32 9
  call void @av_freep(ptr noundef %86)
  %87 = load ptr, ptr %3, align 8, !tbaa !22
  %88 = getelementptr inbounds nuw %struct.AFFTFiltContext, ptr %87, i32 0, i32 10
  call void @av_freep(ptr noundef %88)
  store i32 0, ptr %4, align 4, !tbaa !24
  br label %89

89:                                               ; preds = %110, %78
  %90 = load i32, ptr %4, align 4, !tbaa !24
  %91 = load ptr, ptr %3, align 8, !tbaa !22
  %92 = getelementptr inbounds nuw %struct.AFFTFiltContext, ptr %91, i32 0, i32 11
  %93 = load i32, ptr %92, align 8, !tbaa !40
  %94 = icmp slt i32 %90, %93
  br i1 %94, label %95, label %113

95:                                               ; preds = %89
  %96 = load ptr, ptr %3, align 8, !tbaa !22
  %97 = getelementptr inbounds nuw %struct.AFFTFiltContext, ptr %96, i32 0, i32 14
  %98 = load ptr, ptr %97, align 8, !tbaa !41
  %99 = load i32, ptr %4, align 4, !tbaa !24
  %100 = sext i32 %99 to i64
  %101 = getelementptr inbounds ptr, ptr %98, i64 %100
  %102 = load ptr, ptr %101, align 8, !tbaa !42
  call void @av_expr_free(ptr noundef %102)
  %103 = load ptr, ptr %3, align 8, !tbaa !22
  %104 = getelementptr inbounds nuw %struct.AFFTFiltContext, ptr %103, i32 0, i32 15
  %105 = load ptr, ptr %104, align 8, !tbaa !44
  %106 = load i32, ptr %4, align 4, !tbaa !24
  %107 = sext i32 %106 to i64
  %108 = getelementptr inbounds ptr, ptr %105, i64 %107
  %109 = load ptr, ptr %108, align 8, !tbaa !42
  call void @av_expr_free(ptr noundef %109)
  br label %110

110:                                              ; preds = %95
  %111 = load i32, ptr %4, align 4, !tbaa !24
  %112 = add nsw i32 %111, 1
  store i32 %112, ptr %4, align 4, !tbaa !24
  br label %89, !llvm.loop !45

113:                                              ; preds = %89
  %114 = load ptr, ptr %3, align 8, !tbaa !22
  %115 = getelementptr inbounds nuw %struct.AFFTFiltContext, ptr %114, i32 0, i32 14
  call void @av_freep(ptr noundef %115)
  %116 = load ptr, ptr %3, align 8, !tbaa !22
  %117 = getelementptr inbounds nuw %struct.AFFTFiltContext, ptr %116, i32 0, i32 15
  call void @av_freep(ptr noundef %117)
  %118 = load ptr, ptr %3, align 8, !tbaa !22
  %119 = getelementptr inbounds nuw %struct.AFFTFiltContext, ptr %118, i32 0, i32 19
  call void @av_frame_free(ptr noundef %119)
  %120 = load ptr, ptr %3, align 8, !tbaa !22
  %121 = getelementptr inbounds nuw %struct.AFFTFiltContext, ptr %120, i32 0, i32 18
  call void @av_frame_free(ptr noundef %121)
  %122 = load ptr, ptr %3, align 8, !tbaa !22
  %123 = getelementptr inbounds nuw %struct.AFFTFiltContext, ptr %122, i32 0, i32 21
  call void @av_freep(ptr noundef %123)
  call void @llvm.lifetime.end.p0(i64 4, ptr %4) #11
  call void @llvm.lifetime.end.p0(i64 8, ptr %3) #11
  ret void
}