; Function Attrs: cold nounwind optsize uwtable
define internal void @uninit(ptr noundef readonly captures(none) %0) #0 {
  %2 = getelementptr inbounds nuw i8, ptr %0, i64 72
  %3 = load ptr, ptr %2, align 8, !tbaa !4
  %4 = getelementptr inbounds nuw i8, ptr %3, i64 92
  %5 = load i32, ptr %4, align 4, !tbaa !20
  %6 = icmp sgt i32 %5, 0
  br i1 %6, label %.lr.ph, label %._crit_edge

.lr.ph:                                           ; preds = %1
  %7 = getelementptr inbounds nuw i8, ptr %3, i64 40
  %8 = getelementptr inbounds nuw i8, ptr %3, i64 32
  %9 = getelementptr inbounds nuw i8, ptr %3, i64 64
  %10 = getelementptr inbounds nuw i8, ptr %3, i64 72
  %11 = getelementptr inbounds nuw i8, ptr %3, i64 80
  br label %12

12:                                               ; preds = %.lr.ph, %32
  %indvars.iv = phi i64 [ 0, %.lr.ph ], [ %indvars.iv.next, %32 ]
  %13 = load ptr, ptr %7, align 8, !tbaa !28
  %.not = icmp eq ptr %13, null
  br i1 %.not, label %16, label %14

14:                                               ; preds = %12
  %15 = getelementptr inbounds nuw ptr, ptr %13, i64 %indvars.iv
  tail call void @av_tx_uninit(ptr noundef nonnull %15) #12
  br label %16

16:                                               ; preds = %14, %12
  %17 = load ptr, ptr %8, align 8, !tbaa !29
  %.not40 = icmp eq ptr %17, null
  br i1 %.not40, label %20, label %18

18:                                               ; preds = %16
  %19 = getelementptr inbounds nuw ptr, ptr %17, i64 %indvars.iv
  tail call void @av_tx_uninit(ptr noundef nonnull %19) #12
  br label %20

20:                                               ; preds = %18, %16
  %21 = load ptr, ptr %9, align 8, !tbaa !30
  %.not41 = icmp eq ptr %21, null
  br i1 %.not41, label %24, label %22

22:                                               ; preds = %20
  %23 = getelementptr inbounds nuw ptr, ptr %21, i64 %indvars.iv
  tail call void @av_freep(ptr noundef nonnull %23) #12
  br label %24

24:                                               ; preds = %22, %20
  %25 = load ptr, ptr %10, align 8, !tbaa !31
  %.not42 = icmp eq ptr %25, null
  br i1 %.not42, label %28, label %26

26:                                               ; preds = %24
  %27 = getelementptr inbounds nuw ptr, ptr %25, i64 %indvars.iv
  tail call void @av_freep(ptr noundef nonnull %27) #12
  br label %28

28:                                               ; preds = %26, %24
  %29 = load ptr, ptr %11, align 8, !tbaa !32
  %.not43 = icmp eq ptr %29, null
  br i1 %.not43, label %32, label %30

30:                                               ; preds = %28
  %31 = getelementptr inbounds nuw ptr, ptr %29, i64 %indvars.iv
  tail call void @av_freep(ptr noundef nonnull %31) #12
  br label %32

32:                                               ; preds = %28, %30
  %indvars.iv.next = add nuw nsw i64 %indvars.iv, 1
  %33 = load i32, ptr %4, align 4, !tbaa !20
  %34 = sext i32 %33 to i64
  %35 = icmp slt i64 %indvars.iv.next, %34
  br i1 %35, label %12, label %._crit_edge, !llvm.loop !33

._crit_edge:                                      ; preds = %32, %1
  %36 = getelementptr inbounds nuw i8, ptr %3, i64 32
  tail call void @av_freep(ptr noundef nonnull %36) #12
  %37 = getelementptr inbounds nuw i8, ptr %3, i64 40
  tail call void @av_freep(ptr noundef nonnull %37) #12
  %38 = getelementptr inbounds nuw i8, ptr %3, i64 64
  tail call void @av_freep(ptr noundef nonnull %38) #12
  %39 = getelementptr inbounds nuw i8, ptr %3, i64 72
  tail call void @av_freep(ptr noundef nonnull %39) #12
  %40 = getelementptr inbounds nuw i8, ptr %3, i64 80
  tail call void @av_freep(ptr noundef nonnull %40) #12
  %41 = getelementptr inbounds nuw i8, ptr %3, i64 88
  %42 = load i32, ptr %41, align 8, !tbaa !35
  %43 = icmp sgt i32 %42, 0
  br i1 %43, label %.lr.ph47, label %._crit_edge48

.lr.ph47:                                         ; preds = %._crit_edge
  %44 = getelementptr inbounds nuw i8, ptr %3, i64 104
  %45 = getelementptr inbounds nuw i8, ptr %3, i64 112
  br label %46

46:                                               ; preds = %.lr.ph47, %46
  %indvars.iv50 = phi i64 [ 0, %.lr.ph47 ], [ %indvars.iv.next51, %46 ]
  %47 = load ptr, ptr %44, align 8, !tbaa !36
  %48 = getelementptr inbounds nuw ptr, ptr %47, i64 %indvars.iv50
  %49 = load ptr, ptr %48, align 8, !tbaa !37
  tail call void @av_expr_free(ptr noundef %49) #12
  %50 = load ptr, ptr %45, align 8, !tbaa !39
  %51 = getelementptr inbounds nuw ptr, ptr %50, i64 %indvars.iv50
  %52 = load ptr, ptr %51, align 8, !tbaa !37
  tail call void @av_expr_free(ptr noundef %52) #12
  %indvars.iv.next51 = add nuw nsw i64 %indvars.iv50, 1
  %53 = load i32, ptr %41, align 8, !tbaa !35
  %54 = sext i32 %53 to i64
  %55 = icmp slt i64 %indvars.iv.next51, %54
  br i1 %55, label %46, label %._crit_edge48, !llvm.loop !40

._crit_edge48:                                    ; preds = %46, %._crit_edge
  %56 = getelementptr inbounds nuw i8, ptr %3, i64 104
  tail call void @av_freep(ptr noundef nonnull %56) #12
  %57 = getelementptr inbounds nuw i8, ptr %3, i64 112
  tail call void @av_freep(ptr noundef nonnull %57) #12
  %58 = getelementptr inbounds nuw i8, ptr %3, i64 136
  tail call void @av_frame_free(ptr noundef nonnull %58) #12
  %59 = getelementptr inbounds nuw i8, ptr %3, i64 128
  tail call void @av_frame_free(ptr noundef nonnull %59) #12
  %60 = getelementptr inbounds nuw i8, ptr %3, i64 152
  tail call void @av_freep(ptr noundef nonnull %60) #12
  ret void
}